(dp0
I111360
F0.2
sI97921
F1.0
sI103042
F0.2
sI97923
F0.4
sI115713
F1.0
sI91529
F1.0
sI115210
F0.4
sI122892
F0.6
sI122882
F1.0
sI111759
F1.0
sI94864
F0.4
sI98961
F0.8
sI97938
F0.4
sI110102
F0.4
sI97304
F0.8
sI117529
F0.6
sI106782
F0.4
sI105504
F0.6
sI112290
F0.6
sI106916
F0.8
sI111781
F0.8
sI118696
F0.2
sI102445
F0.8
sI109487
F1.0
sI106489
F0.4
sI108190
F0.6
sI104841
F0.6
sI117176
F0.8
sI103228
F1.0
sI116797
F1.0
sI109374
F0.8
sI94018
F0.0
sI93510
F0.8
sI106072
F0.4
sI130634
F0.8
sI106002
F0.4
sI96079
F0.8
sI95441
F0.6
sI112852
F1.0
sI94677
F0.4
sI116823
F0.6
sI97752
F0.6
sI91535
F0.8
sI103772
F0.2
sI120799
F0.2
sI100498
F1.0
sI89745
F0.8
sI119145
F0.8
sI98154
F1.0
sI102123
F0.6
sI91500
F0.8
sI102125
F0.8
sI107069
F0.8
sI103341
F0.6
sI106487
F0.8
sI98809
F0.4
s.